target datalayout = "e-m:e-p270:32:32-p271:32:32-p272:64:64-i64:64-i128:128-f80:128-n8:16:32:64-S128"
target triple = "x86_64-pc-linux-gnu"

%struct.nstime_t = type { i64, i32 }
%struct._packet_info = type { ptr, ptr, i32, i32, %struct.nstime_t, %struct.nstime_t, %struct.nstime_t, i8, ptr, ptr, ptr, ptr, %struct._address, %struct._address, %struct._address, %struct._address, %struct._address, %struct._address, i32, ptr, i8, [3 x i8], %struct.anon, i32, i32, i32, i32, ptr, i8, ptr, ptr, i16, i16, i32, i32, i16, i32, i32, ptr, ptr, ptr, i8, i8, i16, i16, i16, i32, i16, i16, ptr, ptr, ptr, ptr, ptr, i32, i32 }
%struct._address = type { i32, i32, ptr, ptr }
%struct.anon = type { i8, [3 x i8] }

@hf_pfcp_network_instance = internal global i32 0, align 4
@.str.2654 = private unnamed_addr constant [3 x i8] c"%s\00", align 1

; Function Attrs: null_pointer_is_valid sspstrong uwtable
define internal i32 @decode_pfcp_network_instance(ptr noundef %0, ptr noundef %1, ptr noundef %2, ptr noundef %3, i32 noundef %4, i32 noundef %5) #0 {
  %7 = alloca ptr, align 8
  %8 = alloca ptr, align 8
  %9 = alloca ptr, align 8
  %10 = alloca ptr, align 8
  %11 = alloca i32, align 4
  %12 = alloca i32, align 4
  %13 = alloca i32, align 4
  %14 = alloca ptr, align 8
  %15 = alloca ptr, align 8
  store ptr %0, ptr %7, align 8
  store ptr %1, ptr %8, align 8
  store ptr %2, ptr %9, align 8
  store ptr %3, ptr %10, align 8
  store i32 %4, ptr %11, align 4
  store i32 %5, ptr %12, align 4
  call void @llvm.lifetime.start.p0(i64 4, ptr %13) #13
  %16 = load i32, ptr %12, align 4
  %17 = icmp sgt i32 %16, 0
  br i1 %17, label %18, label %71

18:                                               ; preds = %6
  %19 = load ptr, ptr %7, align 8
  %20 = load i32, ptr %11, align 4
  %21 = call zeroext i8 @tvb_get_uint8(ptr noundef %19, i32 noundef %20)
  %22 = zext i8 %21 to i32
  store i32 %22, ptr %13, align 4
  %23 = load i32, ptr %13, align 4
  %24 = icmp slt i32 %23, 65
  br i1 %24, label %25, label %58

25:                                               ; preds = %18
  call void @llvm.lifetime.start.p0(i64 8, ptr %14) #13
  store ptr null, ptr %14, align 8
  %26 = load ptr, ptr %7, align 8
  %27 = load i32, ptr %11, align 4
  %28 = call zeroext i8 @tvb_get_uint8(ptr noundef %26, i32 noundef %27)
  %29 = zext i8 %28 to i32
  store i32 %29, ptr %13, align 4
  %30 = load i32, ptr %13, align 4
  %31 = icmp slt i32 %30, 32
  br i1 %31, label %32, label %40

32:                                               ; preds = %25
  %33 = load ptr, ptr %8, align 8
  %34 = getelementptr inbounds nuw %struct._packet_info, ptr %33, i32 0, i32 51
  %35 = load ptr, ptr %34, align 8
  %36 = load ptr, ptr %7, align 8
  %37 = load i32, ptr %11, align 4
  %38 = load i32, ptr %12, align 4
  %39 = call ptr @tvb_get_string_enc(ptr noundef %35, ptr noundef %36, i32 noundef %37, i32 noundef %38, i32 noundef 84)
  store ptr %39, ptr %14, align 8
  br label %48

40:                                               ; preds = %25
  %41 = load ptr, ptr %8, align 8
  %42 = getelementptr inbounds nuw %struct._packet_info, ptr %41, i32 0, i32 51
  %43 = load ptr, ptr %42, align 8
  %44 = load ptr, ptr %7, align 8
  %45 = load i32, ptr %11, align 4
  %46 = load i32, ptr %12, align 4
  %47 = call ptr @tvb_get_string_enc(ptr noundef %43, ptr noundef %44, i32 noundef %45, i32 noundef %46, i32 noundef 0)
  store ptr %47, ptr %14, align 8
  br label %48

48:                                               ; preds = %40, %32
  %49 = load ptr, ptr %9, align 8
  %50 = load i32, ptr @hf_pfcp_network_instance, align 4
  %51 = load ptr, ptr %7, align 8
  %52 = load i32, ptr %11, align 4
  %53 = load i32, ptr %12, align 4
  %54 = load ptr, ptr %14, align 8
  %55 = call ptr @proto_tree_add_string(ptr noundef %49, i32 noundef %50, ptr noundef %51, i32 noundef %52, i32 noundef %53, ptr noundef %54)
  %56 = load ptr, ptr %10, align 8
  %57 = load ptr, ptr %14, align 8
  call void (ptr, ptr, ...) @proto_item_append_text(ptr noundef %56, ptr noundef @.str.2654, ptr noundef %57)
  call void @llvm.lifetime.end.p0(i64 8, ptr %14) #13
  br label %70

58:                                               ; preds = %18
  call void @llvm.lifetime.start.p0(i64 8, ptr %15) #13
  %59 = load ptr, ptr %9, align 8
  %60 = load i32, ptr @hf_pfcp_network_instance, align 4
  %61 = load ptr, ptr %7, align 8
  %62 = load i32, ptr %11, align 4
  %63 = load i32, ptr %12, align 4
  %64 = load ptr, ptr %8, align 8
  %65 = getelementptr inbounds nuw %struct._packet_info, ptr %64, i32 0, i32 51
  %66 = load ptr, ptr %65, align 8
  %67 = call ptr @proto_tree_add_item_ret_string(ptr noundef %59, i32 noundef %60, ptr noundef %61, i32 noundef %62, i32 noundef %63, i32 noundef 0, ptr noundef %66, ptr noundef %15)
  %68 = load ptr, ptr %10, align 8
  %69 = load ptr, ptr %15, align 8
  call void (ptr, ptr, ...) @proto_item_append_text(ptr noundef %68, ptr noundef @.str.2654, ptr noundef %69)
  call void @llvm.lifetime.end.p0(i64 8, ptr %15) #13
  br label %70

70:                                               ; preds = %58, %48
  br label %71

71:                                               ; preds = %70, %6
  %72 = load i32, ptr %11, align 4
  %73 = load i32, ptr %12, align 4
  %74 = add i32 %72, %73
  call void @llvm.lifetime.end.p0(i64 4, ptr %13) #13
  ret i32 %74
}