; Function Attrs: null_pointer_is_valid sspstrong uwtable
define internal fastcc noundef i32 @decode_pfcp_network_instance(ptr noundef %0, ptr noundef readonly captures(none) %1, ptr noundef %2, ptr noundef %3, i32 noundef %4, i32 noundef %5) unnamed_addr #0 {
  %7 = alloca ptr, align 8
  %8 = icmp sgt i32 %5, 0
  br i1 %8, label %9, label %25

9:                                                ; preds = %6
  %10 = tail call zeroext i8 @tvb_get_uint8(ptr noundef %0, i32 noundef %4)
  %11 = icmp ult i8 %10, 65
  %12 = getelementptr inbounds nuw i8, ptr %1, i64 408
  br i1 %11, label %13, label %20

13:                                               ; preds = %9
  %14 = tail call zeroext i8 @tvb_get_uint8(ptr noundef %0, i32 noundef %4)
  %15 = icmp ult i8 %14, 32
  %16 = load ptr, ptr %12, align 8
  %. = select i1 %15, i32 84, i32 0
  %17 = tail call ptr @tvb_get_string_enc(ptr noundef %16, ptr noundef %0, i32 noundef %4, i32 noundef %5, i32 noundef %.)
  %18 = load i32, ptr @hf_pfcp_network_instance, align 4
  %19 = tail call ptr @proto_tree_add_string(ptr noundef %2, i32 noundef %18, ptr noundef %0, i32 noundef %4, i32 noundef %5, ptr noundef %17)
  tail call void (ptr, ptr, ...) @proto_item_append_text(ptr noundef %3, ptr noundef nonnull @.str.2654, ptr noundef %17)
  br label %25

20:                                               ; preds = %9
  call void @llvm.lifetime.start.p0(i64 8, ptr nonnull %7) #15
  %21 = load i32, ptr @hf_pfcp_network_instance, align 4
  %22 = load ptr, ptr %12, align 8
  %23 = call ptr @proto_tree_add_item_ret_string(ptr noundef %2, i32 noundef %21, ptr noundef %0, i32 noundef %4, i32 noundef %5, i32 noundef 0, ptr noundef %22, ptr noundef nonnull %7)
  %24 = load ptr, ptr %7, align 8
  call void (ptr, ptr, ...) @proto_item_append_text(ptr noundef %3, ptr noundef nonnull @.str.2654, ptr noundef %24)
  call void @llvm.lifetime.end.p0(i64 8, ptr nonnull %7) #15
  br label %25

25:                                               ; preds = %13, %20, %6
  %26 = add i32 %5, %4
  ret i32 %26
}